; Function Attrs: cold nounwind optsize uwtable
define internal void @uninit(ptr noundef readonly captures(none) %0) #0 {
  %2 = getelementptr inbounds nuw i8, ptr %0, i64 72
  %3 = load ptr, ptr %2, align 8, !tbaa !4
  %4 = getelementptr inbounds nuw i8, ptr %3, i64 240
  tail call void @av_frame_free(ptr noundef nonnull %4) #5
  %5 = getelementptr inbounds nuw i8, ptr %3, i64 248
  tail call void @av_frame_free(ptr noundef nonnull %5) #5
  ret void
}